; Function Attrs: mustprogress uwtable
define noundef nonnull align 8 dereferenceable(16) ptr @_ZN32pxrInternal_v0_24__pxrReserved__8pxr_halfrsERSiRNS0_4halfE(ptr noundef nonnull returned align 8 dereferenceable(16) %0, ptr nocapture noundef nonnull writeonly align 2 dereferenceable(2) %1) local_unnamed_addr #1 {
  %3 = alloca float, align 4
  %4 = call noundef nonnull align 8 dereferenceable(16) ptr @_ZNSirsERf(ptr noundef nonnull align 8 dereferenceable(16) %0, ptr noundef nonnull align 4 dereferenceable(4) %3)
  %5 = load float, ptr %3, align 4
  %6 = bitcast float %5 to i32
  %7 = fcmp oeq float %5, 0.000000e+00
  br i1 %7, label %8, label %11

8:                                                ; preds = %2
  %9 = lshr exact i32 %6, 16
  %10 = trunc nuw i32 %9 to i16
  br label %_ZN32pxrInternal_v0_24__pxrReserved__8pxr_half4halfC2Ef.exit

11:                                               ; preds = %2
  %12 = lshr i32 %6, 23
  %13 = zext nneg i32 %12 to i64
  %14 = getelementptr inbounds [512 x i16], ptr @_ZN32pxrInternal_v0_24__pxrReserved__8pxr_half4half5_eLutE, i64 0, i64 %13
  %15 = load i16, ptr %14, align 2
  %.not.i = icmp eq i16 %15, 0
  br i1 %.not.i, label %25, label %16

16:                                               ; preds = %11
  %17 = and i32 %6, 8388607
  %18 = add nuw nsw i32 %17, 4095
  %19 = lshr i32 %6, 13
  %20 = and i32 %19, 1
  %21 = add nuw nsw i32 %18, %20
  %22 = lshr i32 %21, 13
  %23 = trunc nuw nsw i32 %22 to i16
  %24 = add i16 %15, %23
  br label %_ZN32pxrInternal_v0_24__pxrReserved__8pxr_half4halfC2Ef.exit

25:                                               ; preds = %11
  %26 = call noundef signext i16 @_ZN32pxrInternal_v0_24__pxrReserved__8pxr_half4half7convertEi(i32 noundef %6)
  br label %_ZN32pxrInternal_v0_24__pxrReserved__8pxr_half4halfC2Ef.exit

_ZN32pxrInternal_v0_24__pxrReserved__8pxr_half4halfC2Ef.exit: ; preds = %8, %16, %25
  %.sink.i = phi i16 [ %24, %16 ], [ %26, %25 ], [ %10, %8 ]
  store i16 %.sink.i, ptr %1, align 2
  ret ptr %0
}